target datalayout = "e-m:e-p270:32:32-p271:32:32-p272:64:64-i64:64-i128:128-f80:128-n8:16:32:64-S128"
target triple = "x86_64-pc-linux-gnu"

%struct.listTypeEntry = type { ptr, ptr, %struct.quicklistEntry }
%struct.quicklistEntry = type { ptr, ptr, ptr, ptr, i64, i64, i32 }

@.str.119 = private unnamed_addr constant [6 x i8] c"RPUSH\00", align 1

; Function Attrs: nounwind uwtable
define dso_local i32 @rewriteListObject(ptr noundef %0, ptr noundef %1, ptr noundef %2) #0 {
  %4 = alloca i32, align 4
  %5 = alloca ptr, align 8
  %6 = alloca ptr, align 8
  %7 = alloca ptr, align 8
  %8 = alloca i64, align 8
  %9 = alloca i64, align 8
  %10 = alloca ptr, align 8
  %11 = alloca %struct.listTypeEntry, align 8
  %12 = alloca i32, align 4
  %13 = alloca i32, align 4
  %14 = alloca ptr, align 8
  %15 = alloca i64, align 8
  %16 = alloca i64, align 8
  store ptr %0, ptr %5, align 8, !tbaa !173
  store ptr %1, ptr %6, align 8, !tbaa !132
  store ptr %2, ptr %7, align 8, !tbaa !132
  call void @llvm.lifetime.start.p0(i64 8, ptr %8) #12
  store i64 0, ptr %8, align 8, !tbaa !68
  call void @llvm.lifetime.start.p0(i64 8, ptr %9) #12
  %17 = load ptr, ptr %7, align 8, !tbaa !132
  %18 = call i64 @listTypeLength(ptr noundef %17)
  store i64 %18, ptr %9, align 8, !tbaa !68
  call void @llvm.lifetime.start.p0(i64 8, ptr %10) #12
  %19 = load ptr, ptr %7, align 8, !tbaa !132
  %20 = call ptr @listTypeInitIterator(ptr noundef %19, i64 noundef 0, i8 noundef zeroext 1)
  store ptr %20, ptr %10, align 8, !tbaa !5
  call void @llvm.lifetime.start.p0(i64 72, ptr %11) #12
  br label %21

21:                                               ; preds = %89, %3
  %22 = load ptr, ptr %10, align 8, !tbaa !5
  %23 = call i32 @listTypeNext(ptr noundef %22, ptr noundef %11)
  %24 = icmp ne i32 %23, 0
  br i1 %24, label %25, label %90

25:                                               ; preds = %21
  %26 = load i64, ptr %8, align 8, !tbaa !68
  %27 = icmp eq i64 %26, 0
  br i1 %27, label %28, label %58

28:                                               ; preds = %25
  call void @llvm.lifetime.start.p0(i64 4, ptr %12) #12
  %29 = load i64, ptr %9, align 8, !tbaa !68
  %30 = icmp sgt i64 %29, 64
  br i1 %30, label %31, label %32

31:                                               ; preds = %28
  br label %34

32:                                               ; preds = %28
  %33 = load i64, ptr %9, align 8, !tbaa !68
  br label %34

34:                                               ; preds = %32, %31
  %35 = phi i64 [ 64, %31 ], [ %33, %32 ]
  %36 = trunc i64 %35 to i32
  store i32 %36, ptr %12, align 4, !tbaa !22
  %37 = load ptr, ptr %5, align 8, !tbaa !173
  %38 = load i32, ptr %12, align 4, !tbaa !22
  %39 = add nsw i32 2, %38
  %40 = sext i32 %39 to i64
  %41 = call i64 @rioWriteBulkCount(ptr noundef %37, i8 noundef signext 42, i64 noundef %40)
  %42 = icmp ne i64 %41, 0
  br i1 %42, label %43, label %52

43:                                               ; preds = %34
  %44 = load ptr, ptr %5, align 8, !tbaa !173
  %45 = call i64 @rioWriteBulkString(ptr noundef %44, ptr noundef @.str.119, i64 noundef 5)
  %46 = icmp ne i64 %45, 0
  br i1 %46, label %47, label %52

47:                                               ; preds = %43
  %48 = load ptr, ptr %5, align 8, !tbaa !173
  %49 = load ptr, ptr %6, align 8, !tbaa !132
  %50 = call i32 @rioWriteBulkObject(ptr noundef %48, ptr noundef %49)
  %51 = icmp ne i32 %50, 0
  br i1 %51, label %54, label %52

52:                                               ; preds = %47, %43, %34
  %53 = load ptr, ptr %10, align 8, !tbaa !5
  call void @listTypeReleaseIterator(ptr noundef %53)
  store i32 0, ptr %4, align 4
  store i32 1, ptr %13, align 4
  br label %55

54:                                               ; preds = %47
  store i32 0, ptr %13, align 4
  br label %55

55:                                               ; preds = %54, %52
  call void @llvm.lifetime.end.p0(i64 4, ptr %12) #12
  %56 = load i32, ptr %13, align 4
  switch i32 %56, label %92 [
    i32 0, label %57
  ]

57:                                               ; preds = %55
  br label %58

58:                                               ; preds = %57, %25
  call void @llvm.lifetime.start.p0(i64 8, ptr %14) #12
  call void @llvm.lifetime.start.p0(i64 8, ptr %15) #12
  call void @llvm.lifetime.start.p0(i64 8, ptr %16) #12
  %59 = call ptr @listTypeGetValue(ptr noundef %11, ptr noundef %15, ptr noundef %16)
  store ptr %59, ptr %14, align 8, !tbaa !18
  %60 = load ptr, ptr %14, align 8, !tbaa !18
  %61 = icmp ne ptr %60, null
  br i1 %61, label %62, label %71

62:                                               ; preds = %58
  %63 = load ptr, ptr %5, align 8, !tbaa !173
  %64 = load ptr, ptr %14, align 8, !tbaa !18
  %65 = load i64, ptr %15, align 8, !tbaa !23
  %66 = call i64 @rioWriteBulkString(ptr noundef %63, ptr noundef %64, i64 noundef %65)
  %67 = icmp ne i64 %66, 0
  br i1 %67, label %70, label %68

68:                                               ; preds = %62
  %69 = load ptr, ptr %10, align 8, !tbaa !5
  call void @listTypeReleaseIterator(ptr noundef %69)
  store i32 0, ptr %4, align 4
  store i32 1, ptr %13, align 4
  br label %87

70:                                               ; preds = %62
  br label %79

71:                                               ; preds = %58
  %72 = load ptr, ptr %5, align 8, !tbaa !173
  %73 = load i64, ptr %16, align 8, !tbaa !68
  %74 = call i64 @rioWriteBulkLongLong(ptr noundef %72, i64 noundef %73)
  %75 = icmp ne i64 %74, 0
  br i1 %75, label %78, label %76

76:                                               ; preds = %71
  %77 = load ptr, ptr %10, align 8, !tbaa !5
  call void @listTypeReleaseIterator(ptr noundef %77)
  store i32 0, ptr %4, align 4
  store i32 1, ptr %13, align 4
  br label %87

78:                                               ; preds = %71
  br label %79

79:                                               ; preds = %78, %70
  %80 = load i64, ptr %8, align 8, !tbaa !68
  %81 = add nsw i64 %80, 1
  store i64 %81, ptr %8, align 8, !tbaa !68
  %82 = icmp eq i64 %81, 64
  br i1 %82, label %83, label %84

83:                                               ; preds = %79
  store i64 0, ptr %8, align 8, !tbaa !68
  br label %84

84:                                               ; preds = %83, %79
  %85 = load i64, ptr %9, align 8, !tbaa !68
  %86 = add nsw i64 %85, -1
  store i64 %86, ptr %9, align 8, !tbaa !68
  store i32 0, ptr %13, align 4
  br label %87

87:                                               ; preds = %84, %76, %68
  call void @llvm.lifetime.end.p0(i64 8, ptr %16) #12
  call void @llvm.lifetime.end.p0(i64 8, ptr %15) #12
  call void @llvm.lifetime.end.p0(i64 8, ptr %14) #12
  %88 = load i32, ptr %13, align 4
  switch i32 %88, label %92 [
    i32 0, label %89
  ]

89:                                               ; preds = %87
  br label %21, !llvm.loop !175

90:                                               ; preds = %21
  %91 = load ptr, ptr %10, align 8, !tbaa !5
  call void @listTypeReleaseIterator(ptr noundef %91)
  store i32 1, ptr %4, align 4
  store i32 1, ptr %13, align 4
  br label %92

92:                                               ; preds = %90, %87, %55
  call void @llvm.lifetime.end.p0(i64 72, ptr %11) #12
  call void @llvm.lifetime.end.p0(i64 8, ptr %10) #12
  call void @llvm.lifetime.end.p0(i64 8, ptr %9) #12
  call void @llvm.lifetime.end.p0(i64 8, ptr %8) #12
  %93 = load i32, ptr %4, align 4
  ret i32 %93
}