; Function Attrs: nounwind uwtable
define dso_local range(i32 0, 2) i32 @rewriteListObject(ptr noundef %0, ptr noundef readonly captures(none) %1, ptr noundef %2) local_unnamed_addr #0 {
  %4 = alloca %struct.listTypeEntry, align 8
  %5 = alloca i64, align 8
  %6 = alloca i64, align 8
  %7 = tail call i64 @listTypeLength(ptr noundef %2) #20
  %8 = tail call ptr @listTypeInitIterator(ptr noundef %2, i64 noundef 0, i8 noundef zeroext 1) #20
  call void @llvm.lifetime.start.p0(i64 72, ptr nonnull %4) #20
  %9 = call i32 @listTypeNext(ptr noundef %8, ptr noundef nonnull %4) #20
  %.not40 = icmp eq i32 %9, 0
  br i1 %.not40, label %._crit_edge, label %.lr.ph

.lr.ph:                                           ; preds = %3, %28
  %.02642 = phi i64 [ %spec.store.select, %28 ], [ 0, %3 ]
  %.02841 = phi i64 [ %31, %28 ], [ %7, %3 ]
  %10 = icmp eq i64 %.02642, 0
  br i1 %10, label %11, label %20

11:                                               ; preds = %.lr.ph
  %12 = call i64 @llvm.smin.i64(i64 %.02841, i64 64)
  %13 = shl i64 %12, 32
  %sext = add i64 %13, 8589934592
  %14 = ashr exact i64 %sext, 32
  %15 = call i64 @rioWriteBulkCount(ptr noundef %0, i8 noundef signext 42, i64 noundef %14) #20
  %.not31 = icmp eq i64 %15, 0
  br i1 %.not31, label %.critedge, label %16

16:                                               ; preds = %11
  %17 = call i64 @rioWriteBulkString(ptr noundef %0, ptr noundef nonnull @.str.119, i64 noundef 5) #20
  %.not32 = icmp eq i64 %17, 0
  br i1 %.not32, label %.critedge, label %18

18:                                               ; preds = %16
  %19 = call i32 @rioWriteBulkObject(ptr noundef %0, ptr noundef %1)
  %.not33 = icmp eq i32 %19, 0
  br i1 %.not33, label %.critedge, label %20

.critedge:                                        ; preds = %18, %16, %11
  call void @listTypeReleaseIterator(ptr noundef %8) #20
  br label %33

20:                                               ; preds = %18, %.lr.ph
  call void @llvm.lifetime.start.p0(i64 8, ptr nonnull %5) #20
  call void @llvm.lifetime.start.p0(i64 8, ptr nonnull %6) #20
  %21 = call ptr @listTypeGetValue(ptr noundef nonnull %4, ptr noundef nonnull %5, ptr noundef nonnull %6) #20
  %.not34 = icmp eq ptr %21, null
  br i1 %.not34, label %25, label %22

22:                                               ; preds = %20
  %23 = load i64, ptr %5, align 8, !tbaa !22
  %24 = call i64 @rioWriteBulkString(ptr noundef %0, ptr noundef nonnull %21, i64 noundef %23) #20
  %.not36 = icmp eq i64 %24, 0
  br i1 %.not36, label %.thread, label %28

25:                                               ; preds = %20
  %26 = load i64, ptr %6, align 8, !tbaa !87
  %27 = call i64 @rioWriteBulkLongLong(ptr noundef %0, i64 noundef %26) #20
  %.not35 = icmp eq i64 %27, 0
  br i1 %.not35, label %.thread, label %28

.thread:                                          ; preds = %25, %22
  call void @listTypeReleaseIterator(ptr noundef %8) #20
  call void @llvm.lifetime.end.p0(i64 8, ptr nonnull %6) #20
  call void @llvm.lifetime.end.p0(i64 8, ptr nonnull %5) #20
  br label %33

28:                                               ; preds = %22, %25
  %29 = add nsw i64 %.02642, 1
  %30 = icmp eq i64 %29, 64
  %spec.store.select = select i1 %30, i64 0, i64 %29
  %31 = add nsw i64 %.02841, -1
  call void @llvm.lifetime.end.p0(i64 8, ptr nonnull %6) #20
  call void @llvm.lifetime.end.p0(i64 8, ptr nonnull %5) #20
  %32 = call i32 @listTypeNext(ptr noundef %8, ptr noundef nonnull %4) #20
  %.not = icmp eq i32 %32, 0
  br i1 %.not, label %._crit_edge, label %.lr.ph, !llvm.loop !156

._crit_edge:                                      ; preds = %28, %3
  call void @listTypeReleaseIterator(ptr noundef %8) #20
  br label %33

33:                                               ; preds = %.thread, %.critedge, %._crit_edge
  %.3 = phi i32 [ 1, %._crit_edge ], [ 0, %.critedge ], [ 0, %.thread ]
  call void @llvm.lifetime.end.p0(i64 72, ptr nonnull %4) #20
  ret i32 %.3
}